target datalayout = "e-m:e-p270:32:32-p271:32:32-p272:64:64-i64:64-i128:128-f80:128-n8:16:32:64-S128"
target triple = "x86_64-pc-linux-gnu"

%struct.OnigEncodingTypeST = type { ptr, ptr, i32, i32, ptr, ptr, ptr, ptr, ptr, ptr, ptr, ptr, ptr, ptr, ptr, ptr, ptr, ptr, ptr, i32, i32, i32 }

; Function Attrs: nounwind uwtable
define internal i32 @check_code_point_sequence_cc(ptr noundef %0, ptr noundef %1, i32 noundef %2, ptr noundef %3, i32 noundef %4) #0 {
  %6 = alloca i32, align 4
  %7 = alloca ptr, align 8
  %8 = alloca ptr, align 8
  %9 = alloca i32, align 4
  %10 = alloca ptr, align 8
  %11 = alloca i32, align 4
  %12 = alloca i32, align 4
  %13 = alloca i32, align 4
  %14 = alloca i32, align 4
  %15 = alloca i32, align 4
  %16 = alloca i32, align 4
  %17 = alloca ptr, align 8
  %18 = alloca i32, align 4
  store ptr %0, ptr %7, align 8, !tbaa !4
  store ptr %1, ptr %8, align 8, !tbaa !4
  store i32 %2, ptr %9, align 4, !tbaa !10
  store ptr %3, ptr %10, align 8, !tbaa !32
  store i32 %4, ptr %11, align 4, !tbaa !10
  call void @llvm.lifetime.start.p0(i64 4, ptr %12) #8
  call void @llvm.lifetime.start.p0(i64 4, ptr %13) #8
  call void @llvm.lifetime.start.p0(i64 4, ptr %14) #8
  call void @llvm.lifetime.start.p0(i64 4, ptr %15) #8
  call void @llvm.lifetime.start.p0(i64 4, ptr %16) #8
  call void @llvm.lifetime.start.p0(i64 8, ptr %17) #8
  store i32 0, ptr %14, align 4, !tbaa !10
  store i32 0, ptr %13, align 4, !tbaa !10
  br label %19

19:                                               ; preds = %177, %5
  %20 = load ptr, ptr %7, align 8, !tbaa !4
  %21 = load ptr, ptr %8, align 8, !tbaa !4
  %22 = icmp ult ptr %20, %21
  %23 = select i1 %22, i32 0, i32 1
  %24 = icmp ne i32 %23, 0
  %25 = xor i1 %24, true
  br i1 %25, label %26, label %183

26:                                               ; preds = %19
  br label %27

27:                                               ; preds = %118, %26
  br label %28

28:                                               ; preds = %27
  %29 = load ptr, ptr %10, align 8, !tbaa !32
  %30 = getelementptr inbounds nuw %struct.OnigEncodingTypeST, ptr %29, i32 0, i32 5
  %31 = load ptr, ptr %30, align 8, !tbaa !92
  %32 = load ptr, ptr %7, align 8, !tbaa !4
  %33 = load ptr, ptr %8, align 8, !tbaa !4
  %34 = call i32 %31(ptr noundef %32, ptr noundef %33)
  store i32 %34, ptr %16, align 4, !tbaa !10
  %35 = load ptr, ptr %7, align 8, !tbaa !4
  store ptr %35, ptr %17, align 8, !tbaa !4
  %36 = load ptr, ptr %10, align 8, !tbaa !32
  %37 = getelementptr inbounds nuw %struct.OnigEncodingTypeST, ptr %36, i32 0, i32 0
  %38 = load ptr, ptr %37, align 8, !tbaa !94
  %39 = load ptr, ptr %7, align 8, !tbaa !4
  %40 = call i32 %38(ptr noundef %39)
  %41 = load ptr, ptr %7, align 8, !tbaa !4
  %42 = sext i32 %40 to i64
  %43 = getelementptr inbounds i8, ptr %41, i64 %42
  store ptr %43, ptr %7, align 8, !tbaa !4
  br label %44

44:                                               ; preds = %28
  br label %45

45:                                               ; preds = %44
  %46 = load i32, ptr %16, align 4, !tbaa !10
  %47 = icmp eq i32 %46, 125
  br i1 %47, label %48, label %55

48:                                               ; preds = %45
  br label %49

49:                                               ; preds = %162, %48
  %50 = load i32, ptr %11, align 4, !tbaa !10
  %51 = icmp eq i32 %50, 2
  br i1 %51, label %52, label %53

52:                                               ; preds = %49
  store i32 -400, ptr %6, align 4
  store i32 1, ptr %18, align 4
  br label %184

53:                                               ; preds = %49
  %54 = load i32, ptr %13, align 4, !tbaa !10
  store i32 %54, ptr %6, align 4
  store i32 1, ptr %18, align 4
  br label %184

55:                                               ; preds = %45
  %56 = load i32, ptr %16, align 4, !tbaa !10
  %57 = icmp eq i32 %56, 32
  br i1 %57, label %61, label %58

58:                                               ; preds = %55
  %59 = load i32, ptr %16, align 4, !tbaa !10
  %60 = icmp eq i32 %59, 10
  br i1 %60, label %61, label %103

61:                                               ; preds = %58, %55
  br label %62

62:                                               ; preds = %94, %61
  %63 = load ptr, ptr %7, align 8, !tbaa !4
  %64 = load ptr, ptr %8, align 8, !tbaa !4
  %65 = icmp ult ptr %63, %64
  %66 = select i1 %65, i32 0, i32 1
  %67 = icmp ne i32 %66, 0
  %68 = xor i1 %67, true
  br i1 %68, label %69, label %95

69:                                               ; preds = %62
  br label %70

70:                                               ; preds = %69
  %71 = load ptr, ptr %10, align 8, !tbaa !32
  %72 = getelementptr inbounds nuw %struct.OnigEncodingTypeST, ptr %71, i32 0, i32 5
  %73 = load ptr, ptr %72, align 8, !tbaa !92
  %74 = load ptr, ptr %7, align 8, !tbaa !4
  %75 = load ptr, ptr %8, align 8, !tbaa !4
  %76 = call i32 %73(ptr noundef %74, ptr noundef %75)
  store i32 %76, ptr %16, align 4, !tbaa !10
  %77 = load ptr, ptr %7, align 8, !tbaa !4
  store ptr %77, ptr %17, align 8, !tbaa !4
  %78 = load ptr, ptr %10, align 8, !tbaa !32
  %79 = getelementptr inbounds nuw %struct.OnigEncodingTypeST, ptr %78, i32 0, i32 0
  %80 = load ptr, ptr %79, align 8, !tbaa !94
  %81 = load ptr, ptr %7, align 8, !tbaa !4
  %82 = call i32 %80(ptr noundef %81)
  %83 = load ptr, ptr %7, align 8, !tbaa !4
  %84 = sext i32 %82 to i64
  %85 = getelementptr inbounds i8, ptr %83, i64 %84
  store ptr %85, ptr %7, align 8, !tbaa !4
  br label %86

86:                                               ; preds = %70
  br label %87

87:                                               ; preds = %86
  %88 = load i32, ptr %16, align 4, !tbaa !10
  %89 = icmp eq i32 %88, 32
  br i1 %89, label %94, label %90

90:                                               ; preds = %87
  %91 = load i32, ptr %16, align 4, !tbaa !10
  %92 = icmp eq i32 %91, 10
  br i1 %92, label %94, label %93

93:                                               ; preds = %90
  br label %95

94:                                               ; preds = %90, %87
  br label %62, !llvm.loop !312

95:                                               ; preds = %93, %62
  %96 = load i32, ptr %16, align 4, !tbaa !10
  %97 = icmp eq i32 %96, 32
  br i1 %97, label %101, label %98

98:                                               ; preds = %95
  %99 = load i32, ptr %16, align 4, !tbaa !10
  %100 = icmp eq i32 %99, 10
  br i1 %100, label %101, label %102

101:                                              ; preds = %98, %95
  store i32 -400, ptr %6, align 4
  store i32 1, ptr %18, align 4
  br label %184

102:                                              ; preds = %98
  br label %159

103:                                              ; preds = %58
  %104 = load i32, ptr %16, align 4, !tbaa !10
  %105 = icmp eq i32 %104, 45
  br i1 %105, label %106, label %119

106:                                              ; preds = %103
  br label %107

107:                                              ; preds = %166, %106
  %108 = load i32, ptr %11, align 4, !tbaa !10
  %109 = icmp ne i32 %108, 1
  br i1 %109, label %110, label %111

110:                                              ; preds = %107
  store i32 -400, ptr %6, align 4
  store i32 1, ptr %18, align 4
  br label %184

111:                                              ; preds = %107
  %112 = load ptr, ptr %7, align 8, !tbaa !4
  %113 = load ptr, ptr %8, align 8, !tbaa !4
  %114 = icmp ult ptr %112, %113
  br i1 %114, label %115, label %116

115:                                              ; preds = %111
  br i1 false, label %117, label %118

116:                                              ; preds = %111
  br i1 true, label %117, label %118

117:                                              ; preds = %116, %115
  store i32 -400, ptr %6, align 4
  store i32 1, ptr %18, align 4
  br label %184

118:                                              ; preds = %116, %115
  store i32 0, ptr %14, align 4, !tbaa !10
  store i32 2, ptr %11, align 4, !tbaa !10
  br label %27

119:                                              ; preds = %103
  %120 = load i32, ptr %14, align 4, !tbaa !10
  %121 = icmp eq i32 %120, 1
  br i1 %121, label %122, label %157

122:                                              ; preds = %119
  %123 = load i32, ptr %9, align 4, !tbaa !10
  %124 = icmp eq i32 %123, 16
  br i1 %124, label %125, label %137

125:                                              ; preds = %122
  %126 = load i32, ptr %16, align 4, !tbaa !10
  %127 = icmp ult i32 %126, 128
  br i1 %127, label %128, label %136

128:                                              ; preds = %125
  %129 = load ptr, ptr %10, align 8, !tbaa !32
  %130 = getelementptr inbounds nuw %struct.OnigEncodingTypeST, ptr %129, i32 0, i32 12
  %131 = load ptr, ptr %130, align 8, !tbaa !198
  %132 = load i32, ptr %16, align 4, !tbaa !10
  %133 = call i32 %131(i32 noundef %132, i32 noundef 11)
  %134 = icmp ne i32 %133, 0
  br i1 %134, label %135, label %136

135:                                              ; preds = %128
  store i32 -212, ptr %6, align 4
  store i32 1, ptr %18, align 4
  br label %184

136:                                              ; preds = %128, %125
  br label %156

137:                                              ; preds = %122
  %138 = load i32, ptr %9, align 4, !tbaa !10
  %139 = icmp eq i32 %138, 8
  br i1 %139, label %140, label %155

140:                                              ; preds = %137
  %141 = load i32, ptr %16, align 4, !tbaa !10
  %142 = icmp ult i32 %141, 128
  br i1 %142, label %143, label %154

143:                                              ; preds = %140
  %144 = load ptr, ptr %10, align 8, !tbaa !32
  %145 = getelementptr inbounds nuw %struct.OnigEncodingTypeST, ptr %144, i32 0, i32 12
  %146 = load ptr, ptr %145, align 8, !tbaa !198
  %147 = load i32, ptr %16, align 4, !tbaa !10
  %148 = call i32 %146(i32 noundef %147, i32 noundef 4)
  %149 = icmp ne i32 %148, 0
  br i1 %149, label %150, label %154

150:                                              ; preds = %143
  %151 = load i32, ptr %16, align 4, !tbaa !10
  %152 = icmp ult i32 %151, 56
  br i1 %152, label %153, label %154

153:                                              ; preds = %150
  store i32 -212, ptr %6, align 4
  store i32 1, ptr %18, align 4
  br label %184

154:                                              ; preds = %150, %143, %140
  br label %155

155:                                              ; preds = %154, %137
  br label %156

156:                                              ; preds = %155, %136
  store i32 -400, ptr %6, align 4
  store i32 1, ptr %18, align 4
  br label %184

157:                                              ; preds = %119
  br label %158

158:                                              ; preds = %157
  br label %159

159:                                              ; preds = %158, %102
  %160 = load i32, ptr %16, align 4, !tbaa !10
  %161 = icmp eq i32 %160, 125
  br i1 %161, label %162, label %163

162:                                              ; preds = %159
  br label %49

163:                                              ; preds = %159
  %164 = load i32, ptr %16, align 4, !tbaa !10
  %165 = icmp eq i32 %164, 45
  br i1 %165, label %166, label %167

166:                                              ; preds = %163
  br label %107

167:                                              ; preds = %163
  %168 = load ptr, ptr %17, align 8, !tbaa !4
  store ptr %168, ptr %7, align 8, !tbaa !4
  %169 = load ptr, ptr %8, align 8, !tbaa !4
  %170 = load ptr, ptr %10, align 8, !tbaa !32
  %171 = load i32, ptr %9, align 4, !tbaa !10
  %172 = call i32 @scan_number_of_base(ptr noundef %7, ptr noundef %169, i32 noundef 1, ptr noundef %170, ptr noundef %15, i32 noundef %171)
  store i32 %172, ptr %12, align 4, !tbaa !10
  %173 = load i32, ptr %12, align 4, !tbaa !10
  %174 = icmp ne i32 %173, 0
  br i1 %174, label %175, label %177

175:                                              ; preds = %167
  %176 = load i32, ptr %12, align 4, !tbaa !10
  store i32 %176, ptr %6, align 4
  store i32 1, ptr %18, align 4
  br label %184

177:                                              ; preds = %167
  %178 = load i32, ptr %13, align 4, !tbaa !10
  %179 = add nsw i32 %178, 1
  store i32 %179, ptr %13, align 4, !tbaa !10
  store i32 1, ptr %14, align 4, !tbaa !10
  %180 = load i32, ptr %11, align 4, !tbaa !10
  %181 = icmp eq i32 %180, 2
  %182 = select i1 %181, i32 0, i32 1
  store i32 %182, ptr %11, align 4, !tbaa !10
  br label %19, !llvm.loop !313

183:                                              ; preds = %19
  store i32 -400, ptr %6, align 4
  store i32 1, ptr %18, align 4
  br label %184

184:                                              ; preds = %183, %175, %156, %153, %135, %117, %110, %101, %53, %52
  call void @llvm.lifetime.end.p0(i64 8, ptr %17) #8
  call void @llvm.lifetime.end.p0(i64 4, ptr %16) #8
  call void @llvm.lifetime.end.p0(i64 4, ptr %15) #8
  call void @llvm.lifetime.end.p0(i64 4, ptr %14) #8
  call void @llvm.lifetime.end.p0(i64 4, ptr %13) #8
  call void @llvm.lifetime.end.p0(i64 4, ptr %12) #8
  %185 = load i32, ptr %6, align 4
  ret i32 %185
}